; Function Attrs: nounwind uwtable
define internal ptr @_operator_delitem(ptr readnone captures(none) %0, ptr noundef readonly captures(none) %1, i64 noundef %2) #0 {
  %or.cond = icmp eq i64 %2, 2
  br i1 %or.cond, label %6, label %4

4:                                                ; preds = %3
  %5 = tail call i32 @_PyArg_CheckPositional(ptr noundef nonnull @.str.44, i64 noundef %2, i64 noundef 2, i64 noundef 2) #7
  %.not = icmp eq i32 %5, 0
  br i1 %.not, label %12, label %6

6:                                                ; preds = %3, %4
  %7 = load ptr, ptr %1, align 8, !tbaa !17
  %8 = getelementptr i8, ptr %1, i64 8
  %9 = load ptr, ptr %8, align 8, !tbaa !17
  %10 = tail call i32 @PyObject_DelItem(ptr noundef %7, ptr noundef %9) #7
  %11 = icmp eq i32 %10, -1
  %._Py_NoneStruct.i = select i1 %11, ptr null, ptr @_Py_NoneStruct
  br label %12

12:                                               ; preds = %4, %6
  %.0 = phi ptr [ %._Py_NoneStruct.i, %6 ], [ null, %4 ]
  ret ptr %.0
}